target datalayout = "e-m:e-p270:32:32-p271:32:32-p272:64:64-i64:64-i128:128-f80:128-n8:16:32:64-S128"
target triple = "x86_64-pc-linux-gnu"

%struct.Aig_Obj_t_ = type { %union.anon, ptr, ptr, i64, i32, i32, %union.anon.0 }
%union.anon = type { ptr }
%union.anon.0 = type { ptr }
%struct.Aig_Man_t_ = type { ptr, ptr, ptr, ptr, ptr, ptr, ptr, %struct.Aig_Obj_t_, i32, i32, i32, i32, i32, i32, [7 x i32], i32, ptr, i32, ptr, i32, ptr, i32, i32, i32, ptr, i32, i32, i32, i32, i32, ptr, ptr, i32, ptr, ptr, i32, ptr, ptr, i32, i32, i32, ptr, ptr, ptr, ptr, ptr, ptr, ptr, ptr, ptr, ptr, ptr, ptr, ptr, ptr, i32, ptr, ptr, ptr, ptr, i32, i64, i64, i64, ptr, ptr }
%struct.Iso_Man_t_ = type { ptr, ptr, i32, i32, i32, i32, i32, i32, ptr, ptr, ptr, ptr, ptr, i64, i64, i64, i64, i64 }
%struct.Vec_Ptr_t_ = type { i32, i32, ptr }
%struct.Iso_Obj_t_ = type { i32, i32, i32, i32, i32, i32 }

@.str.14 = private unnamed_addr constant [66 x i8] c"Total objects =%7d.  Entries =%7d.  Classes =%7d.  Singles =%7d.\0A\00", align 1
@.str.15 = private unnamed_addr constant [22 x i8] c"Non-trivial classes:\0A\00", align 1
@.str.16 = private unnamed_addr constant [8 x i8] c"%5d : {\00", align 1
@.str.17 = private unnamed_addr constant [4 x i8] c" %d\00", align 1
@.str.18 = private unnamed_addr constant [23 x i8] c" %d{%s%d(%d),%s%d(%d)}\00", align 1
@.str.19 = private unnamed_addr constant [2 x i8] c"-\00", align 1
@.str.20 = private unnamed_addr constant [2 x i8] c"+\00", align 1
@.str.21 = private unnamed_addr constant [5 x i8] c"(%d)\00", align 1
@.str.22 = private unnamed_addr constant [4 x i8] c" }\0A\00", align 1

; Function Attrs: inlinehint nounwind uwtable
define internal ptr @Aig_Regular(ptr noundef %0) #4 {
  %2 = alloca ptr, align 8
  store ptr %0, ptr %2, align 8, !tbaa !23
  %3 = load ptr, ptr %2, align 8, !tbaa !23
  %4 = ptrtoint ptr %3 to i64
  %5 = and i64 %4, -2
  %6 = inttoptr i64 %5 to ptr
  ret ptr %6
}

; Function Attrs: inlinehint nounwind uwtable
define internal i32 @Aig_IsComplement(ptr noundef %0) #4 {
  %2 = alloca ptr, align 8
  store ptr %0, ptr %2, align 8, !tbaa !23
  %3 = load ptr, ptr %2, align 8, !tbaa !23
  %4 = ptrtoint ptr %3 to i64
  %5 = and i64 %4, 1
  %6 = trunc i64 %5 to i32
  ret i32 %6
}

; Function Attrs: inlinehint nounwind uwtable
define internal ptr @Aig_ManObj(ptr noundef %0, i32 noundef %1) #4 {
  %3 = alloca ptr, align 8
  %4 = alloca i32, align 4
  store ptr %0, ptr %3, align 8, !tbaa !21
  store i32 %1, ptr %4, align 4, !tbaa !8
  %5 = load ptr, ptr %3, align 8, !tbaa !21
  %6 = getelementptr inbounds nuw %struct.Aig_Man_t_, ptr %5, i32 0, i32 4
  %7 = load ptr, ptr %6, align 8, !tbaa !54
  %8 = icmp ne ptr %7, null
  br i1 %8, label %9, label %15

9:                                                ; preds = %2
  %10 = load ptr, ptr %3, align 8, !tbaa !21
  %11 = getelementptr inbounds nuw %struct.Aig_Man_t_, ptr %10, i32 0, i32 4
  %12 = load ptr, ptr %11, align 8, !tbaa !54
  %13 = load i32, ptr %4, align 4, !tbaa !8
  %14 = call ptr @Vec_PtrEntry(ptr noundef %12, i32 noundef %13)
  br label %16

15:                                               ; preds = %2
  br label %16

16:                                               ; preds = %15, %9
  %17 = phi ptr [ %14, %9 ], [ null, %15 ]
  ret ptr %17
}

; Function Attrs: inlinehint nounwind uwtable
define internal ptr @Iso_ManObj(ptr noundef %0, i32 noundef %1) #4 {
  %3 = alloca ptr, align 8
  %4 = alloca i32, align 4
  store ptr %0, ptr %3, align 8, !tbaa !40
  store i32 %1, ptr %4, align 4, !tbaa !8
  %5 = load i32, ptr %4, align 4, !tbaa !8
  %6 = icmp ne i32 %5, 0
  br i1 %6, label %7, label %14

7:                                                ; preds = %2
  %8 = load ptr, ptr %3, align 8, !tbaa !40
  %9 = getelementptr inbounds nuw %struct.Iso_Man_t_, ptr %8, i32 0, i32 1
  %10 = load ptr, ptr %9, align 8, !tbaa !46
  %11 = load i32, ptr %4, align 4, !tbaa !8
  %12 = sext i32 %11 to i64
  %13 = getelementptr inbounds %struct.Iso_Obj_t_, ptr %10, i64 %12
  br label %15

14:                                               ; preds = %2
  br label %15

15:                                               ; preds = %14, %7
  %16 = phi ptr [ %13, %7 ], [ null, %14 ]
  ret ptr %16
}

; Function Attrs: inlinehint nounwind uwtable
define internal ptr @Aig_ObjFanin1(ptr noundef %0) #4 {
  %2 = alloca ptr, align 8
  store ptr %0, ptr %2, align 8, !tbaa !23
  %3 = load ptr, ptr %2, align 8, !tbaa !23
  %4 = getelementptr inbounds nuw %struct.Aig_Obj_t_, ptr %3, i32 0, i32 2
  %5 = load ptr, ptr %4, align 8, !tbaa !39
  %6 = call ptr @Aig_Regular(ptr noundef %5)
  ret ptr %6
}

; Function Attrs: inlinehint nounwind uwtable
define internal i32 @Aig_ObjFaninId1(ptr noundef %0) #4 {
  %2 = alloca ptr, align 8
  store ptr %0, ptr %2, align 8, !tbaa !23
  %3 = load ptr, ptr %2, align 8, !tbaa !23
  %4 = getelementptr inbounds nuw %struct.Aig_Obj_t_, ptr %3, i32 0, i32 2
  %5 = load ptr, ptr %4, align 8, !tbaa !39
  %6 = icmp ne ptr %5, null
  br i1 %6, label %7, label %14

7:                                                ; preds = %1
  %8 = load ptr, ptr %2, align 8, !tbaa !23
  %9 = getelementptr inbounds nuw %struct.Aig_Obj_t_, ptr %8, i32 0, i32 2
  %10 = load ptr, ptr %9, align 8, !tbaa !39
  %11 = call ptr @Aig_Regular(ptr noundef %10)
  %12 = getelementptr inbounds nuw %struct.Aig_Obj_t_, ptr %11, i32 0, i32 5
  %13 = load i32, ptr %12, align 4, !tbaa !86
  br label %15

14:                                               ; preds = %1
  br label %15

15:                                               ; preds = %14, %7
  %16 = phi i32 [ %13, %7 ], [ -1, %14 ]
  ret i32 %16
}

; Function Attrs: inlinehint nounwind uwtable
define internal i32 @Aig_ObjFaninC1(ptr noundef %0) #4 {
  %2 = alloca ptr, align 8
  store ptr %0, ptr %2, align 8, !tbaa !23
  %3 = load ptr, ptr %2, align 8, !tbaa !23
  %4 = getelementptr inbounds nuw %struct.Aig_Obj_t_, ptr %3, i32 0, i32 2
  %5 = load ptr, ptr %4, align 8, !tbaa !39
  %6 = call i32 @Aig_IsComplement(ptr noundef %5)
  ret i32 %6
}

; Function Attrs: inlinehint nounwind uwtable
define internal i32 @Aig_ObjLevel(ptr noundef %0) #4 {
  %2 = alloca ptr, align 8
  store ptr %0, ptr %2, align 8, !tbaa !23
  %3 = load ptr, ptr %2, align 8, !tbaa !23
  %4 = getelementptr inbounds nuw %struct.Aig_Obj_t_, ptr %3, i32 0, i32 3
  %5 = load i64, ptr %4, align 8
  %6 = lshr i64 %5, 32
  %7 = and i64 %6, 16777215
  %8 = trunc i64 %7 to i32
  ret i32 %8
}

; Function Attrs: inlinehint nounwind uwtable
define internal ptr @Aig_ObjFanin0(ptr noundef %0) #4 {
  %2 = alloca ptr, align 8
  store ptr %0, ptr %2, align 8, !tbaa !23
  %3 = load ptr, ptr %2, align 8, !tbaa !23
  %4 = getelementptr inbounds nuw %struct.Aig_Obj_t_, ptr %3, i32 0, i32 1
  %5 = load ptr, ptr %4, align 8, !tbaa !38
  %6 = call ptr @Aig_Regular(ptr noundef %5)
  ret ptr %6
}

; Function Attrs: inlinehint nounwind uwtable
define internal i32 @Aig_ObjFaninId0(ptr noundef %0) #4 {
  %2 = alloca ptr, align 8
  store ptr %0, ptr %2, align 8, !tbaa !23
  %3 = load ptr, ptr %2, align 8, !tbaa !23
  %4 = getelementptr inbounds nuw %struct.Aig_Obj_t_, ptr %3, i32 0, i32 1
  %5 = load ptr, ptr %4, align 8, !tbaa !38
  %6 = icmp ne ptr %5, null
  br i1 %6, label %7, label %14

7:                                                ; preds = %1
  %8 = load ptr, ptr %2, align 8, !tbaa !23
  %9 = getelementptr inbounds nuw %struct.Aig_Obj_t_, ptr %8, i32 0, i32 1
  %10 = load ptr, ptr %9, align 8, !tbaa !38
  %11 = call ptr @Aig_Regular(ptr noundef %10)
  %12 = getelementptr inbounds nuw %struct.Aig_Obj_t_, ptr %11, i32 0, i32 5
  %13 = load i32, ptr %12, align 4, !tbaa !86
  br label %15

14:                                               ; preds = %1
  br label %15

15:                                               ; preds = %14, %7
  %16 = phi i32 [ %13, %7 ], [ -1, %14 ]
  ret i32 %16
}

; Function Attrs: inlinehint nounwind uwtable
define internal i32 @Aig_ObjFaninC0(ptr noundef %0) #4 {
  %2 = alloca ptr, align 8
  store ptr %0, ptr %2, align 8, !tbaa !23
  %3 = load ptr, ptr %2, align 8, !tbaa !23
  %4 = getelementptr inbounds nuw %struct.Aig_Obj_t_, ptr %3, i32 0, i32 1
  %5 = load ptr, ptr %4, align 8, !tbaa !38
  %6 = call i32 @Aig_IsComplement(ptr noundef %5)
  ret i32 %6
}

; Function Attrs: inlinehint nounwind uwtable
define internal i32 @Iso_ObjId(ptr noundef %0, ptr noundef %1) #4 {
  %3 = alloca ptr, align 8
  %4 = alloca ptr, align 8
  store ptr %0, ptr %3, align 8, !tbaa !40
  store ptr %1, ptr %4, align 8, !tbaa !69
  %5 = load ptr, ptr %4, align 8, !tbaa !69
  %6 = load ptr, ptr %3, align 8, !tbaa !40
  %7 = getelementptr inbounds nuw %struct.Iso_Man_t_, ptr %6, i32 0, i32 1
  %8 = load ptr, ptr %7, align 8, !tbaa !46
  %9 = ptrtoint ptr %5 to i64
  %10 = ptrtoint ptr %8 to i64
  %11 = sub i64 %9, %10
  %12 = sdiv exact i64 %11, 24
  %13 = trunc i64 %12 to i32
  ret i32 %13
}

; Function Attrs: inlinehint nounwind uwtable
define internal i32 @Aig_ObjIsNode(ptr noundef %0) #4 {
  %2 = alloca ptr, align 8
  store ptr %0, ptr %2, align 8, !tbaa !23
  %3 = load ptr, ptr %2, align 8, !tbaa !23
  %4 = getelementptr inbounds nuw %struct.Aig_Obj_t_, ptr %3, i32 0, i32 3
  %5 = load i64, ptr %4, align 8
  %6 = and i64 %5, 7
  %7 = trunc i64 %6 to i32
  %8 = icmp eq i32 %7, 5
  br i1 %8, label %16, label %9

9:                                                ; preds = %1
  %10 = load ptr, ptr %2, align 8, !tbaa !23
  %11 = getelementptr inbounds nuw %struct.Aig_Obj_t_, ptr %10, i32 0, i32 3
  %12 = load i64, ptr %11, align 8
  %13 = and i64 %12, 7
  %14 = trunc i64 %13 to i32
  %15 = icmp eq i32 %14, 6
  br label %16

16:                                               ; preds = %9, %1
  %17 = phi i1 [ true, %1 ], [ %15, %9 ]
  %18 = zext i1 %17 to i32
  ret i32 %18
}

; Function Attrs: inlinehint nounwind uwtable
define internal i32 @Aig_ObjCioId(ptr noundef %0) #4 {
  %2 = alloca ptr, align 8
  store ptr %0, ptr %2, align 8, !tbaa !23
  %3 = load ptr, ptr %2, align 8, !tbaa !23
  %4 = getelementptr inbounds nuw %struct.Aig_Obj_t_, ptr %3, i32 0, i32 0
  %5 = load i32, ptr %4, align 8, !tbaa !17
  ret i32 %5
}

; Function Attrs: inlinehint nounwind uwtable
define internal ptr @Iso_AigObj(ptr noundef %0, ptr noundef %1) #4 {
  %3 = alloca ptr, align 8
  %4 = alloca ptr, align 8
  store ptr %0, ptr %3, align 8, !tbaa !40
  store ptr %1, ptr %4, align 8, !tbaa !69
  %5 = load ptr, ptr %3, align 8, !tbaa !40
  %6 = getelementptr inbounds nuw %struct.Iso_Man_t_, ptr %5, i32 0, i32 0
  %7 = load ptr, ptr %6, align 8, !tbaa !42
  %8 = load ptr, ptr %3, align 8, !tbaa !40
  %9 = load ptr, ptr %4, align 8, !tbaa !69
  %10 = call i32 @Iso_ObjId(ptr noundef %8, ptr noundef %9)
  %11 = call ptr @Aig_ManObj(ptr noundef %7, i32 noundef %10)
  ret ptr %11
}

; Function Attrs: inlinehint nounwind uwtable
define internal ptr @Vec_PtrEntry(ptr noundef %0, i32 noundef %1) #4 {
  %3 = alloca ptr, align 8
  %4 = alloca i32, align 4
  store ptr %0, ptr %3, align 8, !tbaa !57
  store i32 %1, ptr %4, align 4, !tbaa !8
  %5 = load ptr, ptr %3, align 8, !tbaa !57
  %6 = getelementptr inbounds nuw %struct.Vec_Ptr_t_, ptr %5, i32 0, i32 2
  %7 = load ptr, ptr %6, align 8, !tbaa !61
  %8 = load i32, ptr %4, align 4, !tbaa !8
  %9 = sext i32 %8 to i64
  %10 = getelementptr inbounds ptr, ptr %7, i64 %9
  %11 = load ptr, ptr %10, align 8, !tbaa !79
  ret ptr %11
}

; Function Attrs: inlinehint nounwind uwtable
define internal i32 @Vec_PtrSize(ptr noundef %0) #4 {
  %2 = alloca ptr, align 8
  store ptr %0, ptr %2, align 8, !tbaa !57
  %3 = load ptr, ptr %2, align 8, !tbaa !57
  %4 = getelementptr inbounds nuw %struct.Vec_Ptr_t_, ptr %3, i32 0, i32 1
  %5 = load i32, ptr %4, align 4, !tbaa !58
  ret i32 %5
}

; Function Attrs: nounwind uwtable
define void @Iso_ManPrintClasses(ptr noundef %0, i32 noundef %1, i32 noundef %2) #0 {
  %4 = alloca ptr, align 8
  %5 = alloca i32, align 4
  %6 = alloca i32, align 4
  %7 = alloca i32, align 4
  %8 = alloca ptr, align 8
  %9 = alloca ptr, align 8
  %10 = alloca i32, align 4
  %11 = alloca i32, align 4
  %12 = alloca ptr, align 8
  store ptr %0, ptr %4, align 8, !tbaa !40
  store i32 %1, ptr %5, align 4, !tbaa !8
  store i32 %2, ptr %6, align 4, !tbaa !8
  call void @llvm.lifetime.start.p0(i64 4, ptr %7) #11
  store i32 0, ptr %7, align 4, !tbaa !8
  call void @llvm.lifetime.start.p0(i64 8, ptr %8) #11
  call void @llvm.lifetime.start.p0(i64 8, ptr %9) #11
  call void @llvm.lifetime.start.p0(i64 4, ptr %10) #11
  %13 = load i32, ptr %5, align 4, !tbaa !8
  %14 = icmp ne i32 %13, 0
  br i1 %14, label %15, label %29

15:                                               ; preds = %3
  %16 = load ptr, ptr %4, align 8, !tbaa !40
  %17 = getelementptr inbounds nuw %struct.Iso_Man_t_, ptr %16, i32 0, i32 6
  %18 = load i32, ptr %17, align 8, !tbaa !45
  %19 = load ptr, ptr %4, align 8, !tbaa !40
  %20 = getelementptr inbounds nuw %struct.Iso_Man_t_, ptr %19, i32 0, i32 4
  %21 = load i32, ptr %20, align 8, !tbaa !90
  %22 = load ptr, ptr %4, align 8, !tbaa !40
  %23 = getelementptr inbounds nuw %struct.Iso_Man_t_, ptr %22, i32 0, i32 3
  %24 = load i32, ptr %23, align 4, !tbaa !91
  %25 = load ptr, ptr %4, align 8, !tbaa !40
  %26 = getelementptr inbounds nuw %struct.Iso_Man_t_, ptr %25, i32 0, i32 5
  %27 = load i32, ptr %26, align 4, !tbaa !92
  %28 = call i32 (ptr, ...) @printf(ptr noundef @.str.14, i32 noundef %18, i32 noundef %21, i32 noundef %24, i32 noundef %27)
  br label %29

29:                                               ; preds = %15, %3
  %30 = load i32, ptr %6, align 4, !tbaa !8
  %31 = icmp ne i32 %30, 0
  br i1 %31, label %33, label %32

32:                                               ; preds = %29
  store i32 1, ptr %11, align 4
  br label %128

33:                                               ; preds = %29
  %34 = call i32 (ptr, ...) @printf(ptr noundef @.str.15)
  store i32 0, ptr %10, align 4, !tbaa !8
  br label %35

35:                                               ; preds = %124, %33
  %36 = load i32, ptr %10, align 4, !tbaa !8
  %37 = load ptr, ptr %4, align 8, !tbaa !40
  %38 = getelementptr inbounds nuw %struct.Iso_Man_t_, ptr %37, i32 0, i32 10
  %39 = load ptr, ptr %38, align 8, !tbaa !50
  %40 = call i32 @Vec_PtrSize(ptr noundef %39)
  %41 = icmp slt i32 %36, %40
  br i1 %41, label %42, label %48

42:                                               ; preds = %35
  %43 = load ptr, ptr %4, align 8, !tbaa !40
  %44 = getelementptr inbounds nuw %struct.Iso_Man_t_, ptr %43, i32 0, i32 10
  %45 = load ptr, ptr %44, align 8, !tbaa !50
  %46 = load i32, ptr %10, align 4, !tbaa !8
  %47 = call ptr @Vec_PtrEntry(ptr noundef %45, i32 noundef %46)
  store ptr %47, ptr %8, align 8, !tbaa !69
  br label %48

48:                                               ; preds = %42, %35
  %49 = phi i1 [ false, %35 ], [ true, %42 ]
  br i1 %49, label %50, label %127

50:                                               ; preds = %48
  %51 = load i32, ptr %7, align 4, !tbaa !8
  %52 = icmp ne i32 %51, 0
  br i1 %52, label %53, label %59

53:                                               ; preds = %50
  %54 = load ptr, ptr %8, align 8, !tbaa !69
  %55 = load i32, ptr %54, align 4
  %56 = and i32 %55, 1073741823
  %57 = icmp sgt i32 %56, 0
  br i1 %57, label %58, label %59

58:                                               ; preds = %53
  br label %124

59:                                               ; preds = %53, %50
  %60 = load i32, ptr %10, align 4, !tbaa !8
  %61 = call i32 (ptr, ...) @printf(ptr noundef @.str.16, i32 noundef %60)
  %62 = load ptr, ptr %8, align 8, !tbaa !69
  store ptr %62, ptr %9, align 8, !tbaa !69
  br label %63

63:                                               ; preds = %116, %59
  %64 = load ptr, ptr %9, align 8, !tbaa !69
  %65 = icmp ne ptr %64, null
  br i1 %65, label %66, label %122

66:                                               ; preds = %63
  %67 = load i32, ptr %7, align 4, !tbaa !8
  %68 = icmp ne i32 %67, 0
  br i1 %68, label %69, label %75

69:                                               ; preds = %66
  %70 = load ptr, ptr %4, align 8, !tbaa !40
  %71 = load ptr, ptr %9, align 8, !tbaa !69
  %72 = call ptr @Iso_AigObj(ptr noundef %70, ptr noundef %71)
  %73 = call i32 @Aig_ObjCioId(ptr noundef %72)
  %74 = call i32 (ptr, ...) @printf(ptr noundef @.str.17, i32 noundef %73)
  br label %111

75:                                               ; preds = %66
  call void @llvm.lifetime.start.p0(i64 8, ptr %12) #11
  %76 = load ptr, ptr %4, align 8, !tbaa !40
  %77 = load ptr, ptr %9, align 8, !tbaa !69
  %78 = call ptr @Iso_AigObj(ptr noundef %76, ptr noundef %77)
  store ptr %78, ptr %12, align 8, !tbaa !23
  %79 = load ptr, ptr %12, align 8, !tbaa !23
  %80 = call i32 @Aig_ObjIsNode(ptr noundef %79)
  %81 = icmp ne i32 %80, 0
  br i1 %81, label %82, label %105

82:                                               ; preds = %75
  %83 = load ptr, ptr %4, align 8, !tbaa !40
  %84 = load ptr, ptr %9, align 8, !tbaa !69
  %85 = call i32 @Iso_ObjId(ptr noundef %83, ptr noundef %84)
  %86 = load ptr, ptr %12, align 8, !tbaa !23
  %87 = call i32 @Aig_ObjFaninC0(ptr noundef %86)
  %88 = icmp ne i32 %87, 0
  %89 = select i1 %88, ptr @.str.19, ptr @.str.20
  %90 = load ptr, ptr %12, align 8, !tbaa !23
  %91 = call i32 @Aig_ObjFaninId0(ptr noundef %90)
  %92 = load ptr, ptr %12, align 8, !tbaa !23
  %93 = call ptr @Aig_ObjFanin0(ptr noundef %92)
  %94 = call i32 @Aig_ObjLevel(ptr noundef %93)
  %95 = load ptr, ptr %12, align 8, !tbaa !23
  %96 = call i32 @Aig_ObjFaninC1(ptr noundef %95)
  %97 = icmp ne i32 %96, 0
  %98 = select i1 %97, ptr @.str.19, ptr @.str.20
  %99 = load ptr, ptr %12, align 8, !tbaa !23
  %100 = call i32 @Aig_ObjFaninId1(ptr noundef %99)
  %101 = load ptr, ptr %12, align 8, !tbaa !23
  %102 = call ptr @Aig_ObjFanin1(ptr noundef %101)
  %103 = call i32 @Aig_ObjLevel(ptr noundef %102)
  %104 = call i32 (ptr, ...) @printf(ptr noundef @.str.18, i32 noundef %85, ptr noundef %89, i32 noundef %91, i32 noundef %94, ptr noundef %98, i32 noundef %100, i32 noundef %103)
  br label %110

105:                                              ; preds = %75
  %106 = load ptr, ptr %4, align 8, !tbaa !40
  %107 = load ptr, ptr %9, align 8, !tbaa !69
  %108 = call i32 @Iso_ObjId(ptr noundef %106, ptr noundef %107)
  %109 = call i32 (ptr, ...) @printf(ptr noundef @.str.17, i32 noundef %108)
  br label %110

110:                                              ; preds = %105, %82
  call void @llvm.lifetime.end.p0(i64 8, ptr %12) #11
  br label %111

111:                                              ; preds = %110, %69
  %112 = load ptr, ptr %9, align 8, !tbaa !69
  %113 = load i32, ptr %112, align 4
  %114 = and i32 %113, 1073741823
  %115 = call i32 (ptr, ...) @printf(ptr noundef @.str.21, i32 noundef %114)
  br label %116

116:                                              ; preds = %111
  %117 = load ptr, ptr %4, align 8, !tbaa !40
  %118 = load ptr, ptr %9, align 8, !tbaa !69
  %119 = getelementptr inbounds nuw %struct.Iso_Obj_t_, ptr %118, i32 0, i32 4
  %120 = load i32, ptr %119, align 4, !tbaa !72
  %121 = call ptr @Iso_ManObj(ptr noundef %117, i32 noundef %120)
  store ptr %121, ptr %9, align 8, !tbaa !69
  br label %63, !llvm.loop !99

122:                                              ; preds = %63
  %123 = call i32 (ptr, ...) @printf(ptr noundef @.str.22)
  br label %124

124:                                              ; preds = %122, %58
  %125 = load i32, ptr %10, align 4, !tbaa !8
  %126 = add nsw i32 %125, 1
  store i32 %126, ptr %10, align 4, !tbaa !8
  br label %35, !llvm.loop !100

127:                                              ; preds = %48
  store i32 0, ptr %11, align 4
  br label %128

128:                                              ; preds = %127, %32
  call void @llvm.lifetime.end.p0(i64 4, ptr %10) #11
  call void @llvm.lifetime.end.p0(i64 8, ptr %9) #11
  call void @llvm.lifetime.end.p0(i64 8, ptr %8) #11
  call void @llvm.lifetime.end.p0(i64 4, ptr %7) #11
  %129 = load i32, ptr %11, align 4
  switch i32 %129, label %131 [
    i32 0, label %130
    i32 1, label %130
  ]

130:                                              ; preds = %128, %128
  ret void

131:                                              ; preds = %128
  unreachable
}