; Function Attrs: nofree nounwind uwtable
define void @Iso_ManPrintClasses(ptr noundef readonly captures(none) %0, i32 noundef %1, i32 noundef %2) local_unnamed_addr #14 {
  %.not = icmp eq i32 %1, 0
  br i1 %.not, label %14, label %4

4:                                                ; preds = %3
  %5 = getelementptr inbounds nuw i8, ptr %0, i64 32
  %6 = load i32, ptr %5, align 8, !tbaa !40
  %7 = getelementptr inbounds nuw i8, ptr %0, i64 24
  %8 = load i32, ptr %7, align 8, !tbaa !86
  %9 = getelementptr inbounds nuw i8, ptr %0, i64 20
  %10 = load i32, ptr %9, align 4, !tbaa !87
  %11 = getelementptr inbounds nuw i8, ptr %0, i64 28
  %12 = load i32, ptr %11, align 4, !tbaa !88
  %13 = tail call i32 (ptr, ...) @printf(ptr noundef nonnull dereferenceable(1) @.str.14, i32 noundef %6, i32 noundef %8, i32 noundef %10, i32 noundef %12)
  br label %14

14:                                               ; preds = %4, %3
  %.not35 = icmp eq i32 %2, 0
  br i1 %.not35, label %.critedge, label %15

15:                                               ; preds = %14
  %puts = tail call i32 @puts(ptr nonnull dereferenceable(1) @str)
  %16 = getelementptr inbounds nuw i8, ptr %0, i64 56
  %17 = load ptr, ptr %16, align 8, !tbaa !49
  %18 = getelementptr i8, ptr %17, i64 4
  %.val4459 = load i32, ptr %18, align 4, !tbaa !38
  %19 = icmp sgt i32 %.val4459, 0
  br i1 %19, label %.lr.ph62, label %.critedge

.lr.ph62:                                         ; preds = %15
  %20 = getelementptr i8, ptr %0, i64 8
  br label %21

21:                                               ; preds = %.lr.ph62, %._crit_edge
  %indvars.iv = phi i64 [ 0, %.lr.ph62 ], [ %indvars.iv.next, %._crit_edge ]
  %22 = phi ptr [ %17, %.lr.ph62 ], [ %84, %._crit_edge ]
  %23 = getelementptr i8, ptr %22, i64 8
  %.val45 = load ptr, ptr %23, align 8, !tbaa !47
  %24 = getelementptr inbounds nuw ptr, ptr %.val45, i64 %indvars.iv
  %25 = load ptr, ptr %24, align 8, !tbaa !67
  %26 = trunc nuw nsw i64 %indvars.iv to i32
  %27 = tail call i32 (ptr, ...) @printf(ptr noundef nonnull dereferenceable(1) @.str.16, i32 noundef %26)
  %.not3657 = icmp eq ptr %25, null
  br i1 %.not3657, label %._crit_edge, label %.lr.ph

.lr.ph:                                           ; preds = %21, %Iso_ManObj.exit
  %.058 = phi ptr [ %83, %Iso_ManObj.exit ], [ %25, %21 ]
  %.val51 = load ptr, ptr %0, align 8, !tbaa !34
  %.val52 = load ptr, ptr %20, align 8, !tbaa !41
  %28 = getelementptr i8, ptr %.val51, i64 32
  %.val51.val = load ptr, ptr %28, align 8, !tbaa !37
  %.not.i.i = icmp eq ptr %.val51.val, null
  br i1 %.not.i.i, label %Iso_AigObj.exit, label %29

29:                                               ; preds = %.lr.ph
  %30 = ptrtoint ptr %.058 to i64
  %31 = ptrtoint ptr %.val52 to i64
  %32 = sub i64 %30, %31
  %33 = sdiv exact i64 %32, 24
  %34 = getelementptr i8, ptr %.val51.val, i64 8
  %.val.i.i = load ptr, ptr %34, align 8, !tbaa !47
  %sext.i = shl i64 %33, 32
  %35 = ashr exact i64 %sext.i, 29
  %36 = getelementptr inbounds i8, ptr %.val.i.i, i64 %35
  %37 = load ptr, ptr %36, align 8, !tbaa !67
  br label %Iso_AigObj.exit

Iso_AigObj.exit:                                  ; preds = %.lr.ph, %29
  %38 = phi ptr [ %37, %29 ], [ null, %.lr.ph ]
  %39 = getelementptr i8, ptr %38, i64 24
  %.val46 = load i64, ptr %39, align 8
  %40 = trunc i64 %.val46 to i32
  %41 = and i32 %40, 7
  %42 = add nsw i32 %41, -7
  %narrow.i = icmp ult i32 %42, -2
  %43 = ptrtoint ptr %.058 to i64
  %44 = ptrtoint ptr %.val52 to i64
  %45 = sub i64 %43, %44
  %46 = sdiv exact i64 %45, 24
  %47 = trunc i64 %46 to i32
  br i1 %narrow.i, label %73, label %Aig_ObjFaninId0.exit

Aig_ObjFaninId0.exit:                             ; preds = %Iso_AigObj.exit
  %48 = getelementptr i8, ptr %38, i64 8
  %.val42 = load ptr, ptr %48, align 8, !tbaa !32, !nonnull !95, !noundef !95
  %49 = ptrtoint ptr %.val42 to i64
  %50 = and i64 %49, 1
  %.not39 = icmp eq i64 %50, 0
  %51 = select i1 %.not39, ptr @.str.20, ptr @.str.19
  %52 = and i64 %49, -2
  %53 = inttoptr i64 %52 to ptr
  %54 = getelementptr inbounds nuw i8, ptr %53, i64 36
  %55 = load i32, ptr %54, align 4, !tbaa !76
  %56 = getelementptr i8, ptr %53, i64 24
  %.val53 = load i64, ptr %56, align 8
  %57 = lshr i64 %.val53, 32
  %58 = trunc nuw i64 %57 to i32
  %59 = and i32 %58, 16777215
  %60 = getelementptr i8, ptr %38, i64 16
  %.val43 = load ptr, ptr %60, align 8, !tbaa !33, !nonnull !95, !noundef !95
  %61 = ptrtoint ptr %.val43 to i64
  %62 = and i64 %61, 1
  %.not40 = icmp eq i64 %62, 0
  %63 = select i1 %.not40, ptr @.str.20, ptr @.str.19
  %64 = and i64 %61, -2
  %65 = inttoptr i64 %64 to ptr
  %66 = getelementptr inbounds nuw i8, ptr %65, i64 36
  %67 = load i32, ptr %66, align 4, !tbaa !76
  %68 = getelementptr i8, ptr %65, i64 24
  %.val54 = load i64, ptr %68, align 8
  %69 = lshr i64 %.val54, 32
  %70 = trunc nuw i64 %69 to i32
  %71 = and i32 %70, 16777215
  %72 = tail call i32 (ptr, ...) @printf(ptr noundef nonnull dereferenceable(1) @.str.18, i32 noundef %47, ptr noundef nonnull %51, i32 noundef %55, i32 noundef %59, ptr noundef nonnull %63, i32 noundef %67, i32 noundef %71)
  br label %75

73:                                               ; preds = %Iso_AigObj.exit
  %74 = tail call i32 (ptr, ...) @printf(ptr noundef nonnull dereferenceable(1) @.str.17, i32 noundef %47)
  br label %75

75:                                               ; preds = %Aig_ObjFaninId0.exit, %73
  %76 = load i32, ptr %.058, align 4
  %77 = and i32 %76, 1073741823
  %78 = tail call i32 (ptr, ...) @printf(ptr noundef nonnull dereferenceable(1) @.str.21, i32 noundef %77)
  %79 = getelementptr inbounds nuw i8, ptr %.058, i64 16
  %80 = load i32, ptr %79, align 4, !tbaa !65
  %.not.i56 = icmp eq i32 %80, 0
  br i1 %.not.i56, label %._crit_edge, label %Iso_ManObj.exit

Iso_ManObj.exit:                                  ; preds = %75
  %81 = load ptr, ptr %20, align 8, !tbaa !41
  %82 = sext i32 %80 to i64
  %83 = getelementptr inbounds %struct.Iso_Obj_t_, ptr %81, i64 %82
  br label %.lr.ph, !llvm.loop !96

._crit_edge:                                      ; preds = %75, %21
  %puts37 = tail call i32 @puts(ptr nonnull dereferenceable(1) @str.1)
  %indvars.iv.next = add nuw nsw i64 %indvars.iv, 1
  %84 = load ptr, ptr %16, align 8, !tbaa !49
  %85 = getelementptr i8, ptr %84, i64 4
  %.val44 = load i32, ptr %85, align 4, !tbaa !38
  %86 = sext i32 %.val44 to i64
  %87 = icmp slt i64 %indvars.iv.next, %86
  br i1 %87, label %21, label %.critedge, !llvm.loop !97

.critedge:                                        ; preds = %._crit_edge, %15, %14
  ret void
}